target datalayout = "e-m:e-p270:32:32-p271:32:32-p272:64:64-i64:64-i128:128-f80:128-n8:16:32:64-S128"
target triple = "x86_64-pc-linux-gnu"

%struct.Aig_Obj_t_ = type { %union.anon, ptr, ptr, i64, i32, i32, %union.anon.0 }
%union.anon = type { ptr }
%union.anon.0 = type { ptr }
%struct.Vec_Ptr_t_ = type { i32, i32, ptr }
%struct.Vec_Int_t_ = type { i32, i32, ptr }

@Cnf_CutDeriveTruth.Truth6 = internal global [6 x i64] [i64 -6148914691236517206, i64 -3689348814741910324, i64 -1085102592571150096, i64 -71777214294589696, i64 -281470681808896, i64 -4294967296], align 16
@Cnf_CutDeriveTruth.C = internal global [2 x i64] [i64 0, i64 -1], align 16
@Cnf_CutDeriveTruth.S = internal global [256 x i64] zeroinitializer, align 16
@.str.3 = private unnamed_addr constant [12 x i8] c"Unusual 1!\0A\00", align 1
@.str.4 = private unnamed_addr constant [12 x i8] c"Unusual 2!\0A\00", align 1

; Function Attrs: nounwind uwtable
define internal ptr @Aig_Regular(ptr noundef %0) #0 {
  %2 = alloca ptr, align 8
  store ptr %0, ptr %2, align 8
  %3 = load ptr, ptr %2, align 8
  %4 = ptrtoint ptr %3 to i64
  %5 = and i64 %4, -2
  %6 = inttoptr i64 %5 to ptr
  ret ptr %6
}

; Function Attrs: nounwind uwtable
define internal i32 @Aig_IsComplement(ptr noundef %0) #0 {
  %2 = alloca ptr, align 8
  store ptr %0, ptr %2, align 8
  %3 = load ptr, ptr %2, align 8
  %4 = ptrtoint ptr %3 to i64
  %5 = and i64 %4, 1
  %6 = trunc i64 %5 to i32
  ret i32 %6
}

; Function Attrs: nounwind uwtable
define internal i32 @Vec_IntSize(ptr noundef %0) #0 {
  %2 = alloca ptr, align 8
  store ptr %0, ptr %2, align 8
  %3 = load ptr, ptr %2, align 8
  %4 = getelementptr inbounds %struct.Vec_Int_t_, ptr %3, i32 0, i32 1
  %5 = load i32, ptr %4, align 4
  ret i32 %5
}

; Function Attrs: nounwind uwtable
define i64 @Cnf_CutDeriveTruth(ptr noundef %0, ptr noundef %1, ptr noundef %2) #0 {
  %4 = alloca ptr, align 8
  %5 = alloca ptr, align 8
  %6 = alloca ptr, align 8
  %7 = alloca ptr, align 8
  %8 = alloca i32, align 4
  store ptr %0, ptr %4, align 8
  store ptr %1, ptr %5, align 8
  store ptr %2, ptr %6, align 8
  store ptr null, ptr %7, align 8
  store i32 0, ptr %8, align 4
  br label %9

9:                                                ; preds = %33, %3
  %10 = load i32, ptr %8, align 4
  %11 = load ptr, ptr %5, align 8
  %12 = call i32 @Vec_PtrSize(ptr noundef %11)
  %13 = icmp slt i32 %10, %12
  br i1 %13, label %14, label %18

14:                                               ; preds = %9
  %15 = load ptr, ptr %5, align 8
  %16 = load i32, ptr %8, align 4
  %17 = call ptr @Vec_PtrEntry(ptr noundef %15, i32 noundef %16)
  store ptr %17, ptr %7, align 8
  br label %18

18:                                               ; preds = %14, %9
  %19 = phi i1 [ false, %9 ], [ true, %14 ]
  br i1 %19, label %20, label %36

20:                                               ; preds = %18
  %21 = load i32, ptr %8, align 4
  %22 = load ptr, ptr %7, align 8
  %23 = getelementptr inbounds %struct.Aig_Obj_t_, ptr %22, i32 0, i32 6
  store i32 %21, ptr %23, align 8
  %24 = load i32, ptr %8, align 4
  %25 = sext i32 %24 to i64
  %26 = getelementptr inbounds [6 x i64], ptr @Cnf_CutDeriveTruth.Truth6, i64 0, i64 %25
  %27 = load i64, ptr %26, align 8
  %28 = load ptr, ptr %7, align 8
  %29 = getelementptr inbounds %struct.Aig_Obj_t_, ptr %28, i32 0, i32 6
  %30 = load i32, ptr %29, align 8
  %31 = sext i32 %30 to i64
  %32 = getelementptr inbounds [256 x i64], ptr @Cnf_CutDeriveTruth.S, i64 0, i64 %31
  store i64 %27, ptr %32, align 8
  br label %33

33:                                               ; preds = %20
  %34 = load i32, ptr %8, align 4
  %35 = add nsw i32 %34, 1
  store i32 %35, ptr %8, align 4
  br label %9, !llvm.loop !7

36:                                               ; preds = %18
  store i32 0, ptr %8, align 4
  br label %37

37:                                               ; preds = %87, %36
  %38 = load i32, ptr %8, align 4
  %39 = load ptr, ptr %6, align 8
  %40 = call i32 @Vec_PtrSize(ptr noundef %39)
  %41 = icmp slt i32 %38, %40
  br i1 %41, label %42, label %46

42:                                               ; preds = %37
  %43 = load ptr, ptr %6, align 8
  %44 = load i32, ptr %8, align 4
  %45 = call ptr @Vec_PtrEntry(ptr noundef %43, i32 noundef %44)
  store ptr %45, ptr %7, align 8
  br label %46

46:                                               ; preds = %42, %37
  %47 = phi i1 [ false, %37 ], [ true, %42 ]
  br i1 %47, label %48, label %90

48:                                               ; preds = %46
  %49 = load ptr, ptr %5, align 8
  %50 = call i32 @Vec_PtrSize(ptr noundef %49)
  %51 = load i32, ptr %8, align 4
  %52 = add nsw i32 %50, %51
  %53 = load ptr, ptr %7, align 8
  %54 = getelementptr inbounds %struct.Aig_Obj_t_, ptr %53, i32 0, i32 6
  store i32 %52, ptr %54, align 8
  %55 = load ptr, ptr %7, align 8
  %56 = call ptr @Aig_ObjFanin0(ptr noundef %55)
  %57 = getelementptr inbounds %struct.Aig_Obj_t_, ptr %56, i32 0, i32 6
  %58 = load i32, ptr %57, align 8
  %59 = sext i32 %58 to i64
  %60 = getelementptr inbounds [256 x i64], ptr @Cnf_CutDeriveTruth.S, i64 0, i64 %59
  %61 = load i64, ptr %60, align 8
  %62 = load ptr, ptr %7, align 8
  %63 = call i32 @Aig_ObjFaninC0(ptr noundef %62)
  %64 = sext i32 %63 to i64
  %65 = getelementptr inbounds [2 x i64], ptr @Cnf_CutDeriveTruth.C, i64 0, i64 %64
  %66 = load i64, ptr %65, align 8
  %67 = xor i64 %61, %66
  %68 = load ptr, ptr %7, align 8
  %69 = call ptr @Aig_ObjFanin1(ptr noundef %68)
  %70 = getelementptr inbounds %struct.Aig_Obj_t_, ptr %69, i32 0, i32 6
  %71 = load i32, ptr %70, align 8
  %72 = sext i32 %71 to i64
  %73 = getelementptr inbounds [256 x i64], ptr @Cnf_CutDeriveTruth.S, i64 0, i64 %72
  %74 = load i64, ptr %73, align 8
  %75 = load ptr, ptr %7, align 8
  %76 = call i32 @Aig_ObjFaninC1(ptr noundef %75)
  %77 = sext i32 %76 to i64
  %78 = getelementptr inbounds [2 x i64], ptr @Cnf_CutDeriveTruth.C, i64 0, i64 %77
  %79 = load i64, ptr %78, align 8
  %80 = xor i64 %74, %79
  %81 = and i64 %67, %80
  %82 = load ptr, ptr %7, align 8
  %83 = getelementptr inbounds %struct.Aig_Obj_t_, ptr %82, i32 0, i32 6
  %84 = load i32, ptr %83, align 8
  %85 = sext i32 %84 to i64
  %86 = getelementptr inbounds [256 x i64], ptr @Cnf_CutDeriveTruth.S, i64 0, i64 %85
  store i64 %81, ptr %86, align 8
  br label %87

87:                                               ; preds = %48
  %88 = load i32, ptr %8, align 4
  %89 = add nsw i32 %88, 1
  store i32 %89, ptr %8, align 4
  br label %37, !llvm.loop !8

90:                                               ; preds = %46
  %91 = load ptr, ptr %7, align 8
  %92 = getelementptr inbounds %struct.Aig_Obj_t_, ptr %91, i32 0, i32 6
  %93 = load i32, ptr %92, align 8
  %94 = sext i32 %93 to i64
  %95 = getelementptr inbounds [256 x i64], ptr @Cnf_CutDeriveTruth.S, i64 0, i64 %94
  %96 = load i64, ptr %95, align 8
  ret i64 %96
}

; Function Attrs: nounwind uwtable
define internal ptr @Aig_ObjFanin1(ptr noundef %0) #0 {
  %2 = alloca ptr, align 8
  store ptr %0, ptr %2, align 8
  %3 = load ptr, ptr %2, align 8
  %4 = getelementptr inbounds %struct.Aig_Obj_t_, ptr %3, i32 0, i32 2
  %5 = load ptr, ptr %4, align 8
  %6 = call ptr @Aig_Regular(ptr noundef %5)
  ret ptr %6
}

; Function Attrs: nounwind uwtable
define internal i32 @Aig_ObjFaninC1(ptr noundef %0) #0 {
  %2 = alloca ptr, align 8
  store ptr %0, ptr %2, align 8
  %3 = load ptr, ptr %2, align 8
  %4 = getelementptr inbounds %struct.Aig_Obj_t_, ptr %3, i32 0, i32 2
  %5 = load ptr, ptr %4, align 8
  %6 = call i32 @Aig_IsComplement(ptr noundef %5)
  ret i32 %6
}

; Function Attrs: nounwind uwtable
define internal ptr @Aig_ObjFanin0(ptr noundef %0) #0 {
  %2 = alloca ptr, align 8
  store ptr %0, ptr %2, align 8
  %3 = load ptr, ptr %2, align 8
  %4 = getelementptr inbounds %struct.Aig_Obj_t_, ptr %3, i32 0, i32 1
  %5 = load ptr, ptr %4, align 8
  %6 = call ptr @Aig_Regular(ptr noundef %5)
  ret ptr %6
}

; Function Attrs: nounwind uwtable
define internal i32 @Aig_ObjFaninC0(ptr noundef %0) #0 {
  %2 = alloca ptr, align 8
  store ptr %0, ptr %2, align 8
  %3 = load ptr, ptr %2, align 8
  %4 = getelementptr inbounds %struct.Aig_Obj_t_, ptr %3, i32 0, i32 1
  %5 = load ptr, ptr %4, align 8
  %6 = call i32 @Aig_IsComplement(ptr noundef %5)
  ret i32 %6
}

; Function Attrs: nounwind uwtable
define internal ptr @Vec_PtrEntry(ptr noundef %0, i32 noundef %1) #0 {
  %3 = alloca ptr, align 8
  %4 = alloca i32, align 4
  store ptr %0, ptr %3, align 8
  store i32 %1, ptr %4, align 4
  %5 = load ptr, ptr %3, align 8
  %6 = getelementptr inbounds %struct.Vec_Ptr_t_, ptr %5, i32 0, i32 2
  %7 = load ptr, ptr %6, align 8
  %8 = load i32, ptr %4, align 4
  %9 = sext i32 %8 to i64
  %10 = getelementptr inbounds ptr, ptr %7, i64 %9
  %11 = load ptr, ptr %10, align 8
  ret ptr %11
}

; Function Attrs: nounwind uwtable
define internal i32 @Vec_PtrSize(ptr noundef %0) #0 {
  %2 = alloca ptr, align 8
  store ptr %0, ptr %2, align 8
  %3 = load ptr, ptr %2, align 8
  %4 = getelementptr inbounds %struct.Vec_Ptr_t_, ptr %3, i32 0, i32 1
  %5 = load i32, ptr %4, align 4
  ret i32 %5
}

; Function Attrs: nounwind uwtable
define i32 @Cnf_CutCountClauses(ptr noundef %0, ptr noundef %1, ptr noundef %2, ptr noundef %3) #0 {
  %5 = alloca i32, align 4
  %6 = alloca ptr, align 8
  %7 = alloca ptr, align 8
  %8 = alloca ptr, align 8
  %9 = alloca ptr, align 8
  %10 = alloca i64, align 8
  %11 = alloca ptr, align 8
  %12 = alloca i32, align 4
  %13 = alloca i32, align 4
  %14 = alloca i32, align 4
  store ptr %0, ptr %6, align 8
  store ptr %1, ptr %7, align 8
  store ptr %2, ptr %8, align 8
  store ptr %3, ptr %9, align 8
  store i32 0, ptr %14, align 4
  %15 = load ptr, ptr %7, align 8
  %16 = call i32 @Vec_PtrSize(ptr noundef %15)
  %17 = icmp sgt i32 %16, 6
  br i1 %17, label %18, label %68

18:                                               ; preds = %4
  store i32 0, ptr %12, align 4
  br label %19

19:                                               ; preds = %61, %18
  %20 = load i32, ptr %12, align 4
  %21 = load ptr, ptr %8, align 8
  %22 = call i32 @Vec_PtrSize(ptr noundef %21)
  %23 = icmp slt i32 %20, %22
  br i1 %23, label %24, label %28

24:                                               ; preds = %19
  %25 = load ptr, ptr %8, align 8
  %26 = load i32, ptr %12, align 4
  %27 = call ptr @Vec_PtrEntry(ptr noundef %25, i32 noundef %26)
  store ptr %27, ptr %11, align 8
  br label %28

28:                                               ; preds = %24, %19
  %29 = phi i1 [ false, %19 ], [ true, %24 ]
  br i1 %29, label %30, label %64

30:                                               ; preds = %28
  %31 = load ptr, ptr %11, align 8
  %32 = call i32 @Aig_ObjFaninC0(ptr noundef %31)
  %33 = icmp ne i32 %32, 0
  br i1 %33, label %34, label %45

34:                                               ; preds = %30
  %35 = load ptr, ptr %11, align 8
  %36 = call ptr @Aig_ObjFanin0(ptr noundef %35)
  %37 = getelementptr inbounds %struct.Aig_Obj_t_, ptr %36, i32 0, i32 3
  %38 = load i64, ptr %37, align 8
  %39 = lshr i64 %38, 4
  %40 = and i64 %39, 1
  %41 = trunc i64 %40 to i32
  %42 = icmp ne i32 %41, 0
  br i1 %42, label %45, label %43

43:                                               ; preds = %34
  %44 = call i32 (ptr, ...) @printf(ptr noundef @.str.3)
  br label %45

45:                                               ; preds = %43, %34, %30
  %46 = load ptr, ptr %11, align 8
  %47 = call i32 @Aig_ObjFaninC1(ptr noundef %46)
  %48 = icmp ne i32 %47, 0
  br i1 %48, label %49, label %60

49:                                               ; preds = %45
  %50 = load ptr, ptr %11, align 8
  %51 = call ptr @Aig_ObjFanin1(ptr noundef %50)
  %52 = getelementptr inbounds %struct.Aig_Obj_t_, ptr %51, i32 0, i32 3
  %53 = load i64, ptr %52, align 8
  %54 = lshr i64 %53, 4
  %55 = and i64 %54, 1
  %56 = trunc i64 %55 to i32
  %57 = icmp ne i32 %56, 0
  br i1 %57, label %60, label %58

58:                                               ; preds = %49
  %59 = call i32 (ptr, ...) @printf(ptr noundef @.str.4)
  br label %60

60:                                               ; preds = %58, %49, %45
  br label %61

61:                                               ; preds = %60
  %62 = load i32, ptr %12, align 4
  %63 = add nsw i32 %62, 1
  store i32 %63, ptr %12, align 4
  br label %19, !llvm.loop !25

64:                                               ; preds = %28
  %65 = load ptr, ptr %7, align 8
  %66 = call i32 @Vec_PtrSize(ptr noundef %65)
  %67 = add nsw i32 %66, 1
  store i32 %67, ptr %5, align 4
  br label %92

68:                                               ; preds = %4
  %69 = load ptr, ptr %6, align 8
  %70 = load ptr, ptr %7, align 8
  %71 = load ptr, ptr %8, align 8
  %72 = call i64 @Cnf_CutDeriveTruth(ptr noundef %69, ptr noundef %70, ptr noundef %71)
  store i64 %72, ptr %10, align 8
  %73 = load ptr, ptr %7, align 8
  %74 = call i32 @Vec_PtrSize(ptr noundef %73)
  %75 = load ptr, ptr %9, align 8
  %76 = call i32 @Kit_TruthIsop(ptr noundef %10, i32 noundef %74, ptr noundef %75, i32 noundef 0)
  store i32 %76, ptr %13, align 4
  %77 = load ptr, ptr %9, align 8
  %78 = call i32 @Vec_IntSize(ptr noundef %77)
  %79 = load i32, ptr %14, align 4
  %80 = add nsw i32 %79, %78
  store i32 %80, ptr %14, align 4
  %81 = load i64, ptr %10, align 8
  %82 = xor i64 %81, -1
  store i64 %82, ptr %10, align 8
  %83 = load ptr, ptr %7, align 8
  %84 = call i32 @Vec_PtrSize(ptr noundef %83)
  %85 = load ptr, ptr %9, align 8
  %86 = call i32 @Kit_TruthIsop(ptr noundef %10, i32 noundef %84, ptr noundef %85, i32 noundef 0)
  store i32 %86, ptr %13, align 4
  %87 = load ptr, ptr %9, align 8
  %88 = call i32 @Vec_IntSize(ptr noundef %87)
  %89 = load i32, ptr %14, align 4
  %90 = add nsw i32 %89, %88
  store i32 %90, ptr %14, align 4
  %91 = load i32, ptr %14, align 4
  store i32 %91, ptr %5, align 4
  br label %92

92:                                               ; preds = %68, %64
  %93 = load i32, ptr %5, align 4
  ret i32 %93
}