; Function Attrs: nounwind uwtable
define i32 @Cnf_CutCountClauses(ptr readnone captures(none) %0, ptr noundef readonly captures(none) %1, ptr noundef readonly captures(none) %2, ptr noundef %3) local_unnamed_addr #0 {
  %5 = alloca i64, align 8
  %6 = getelementptr i8, ptr %1, i64 4
  %.val33 = load i32, ptr %6, align 4
  %7 = icmp sgt i32 %.val33, 6
  br i1 %7, label %.preheader, label %39

.preheader:                                       ; preds = %4
  %8 = getelementptr i8, ptr %2, i64 4
  %.val3240 = load i32, ptr %8, align 4
  %9 = icmp sgt i32 %.val3240, 0
  br i1 %9, label %.lr.ph, label %.critedge

.lr.ph:                                           ; preds = %.preheader
  %10 = getelementptr i8, ptr %2, i64 8
  br label %11

11:                                               ; preds = %.lr.ph, %35
  %indvars.iv = phi i64 [ 0, %.lr.ph ], [ %indvars.iv.next, %35 ]
  %.val34 = load ptr, ptr %10, align 8
  %12 = getelementptr inbounds nuw ptr, ptr %.val34, i64 %indvars.iv
  %13 = load ptr, ptr %12, align 8
  %14 = getelementptr i8, ptr %13, i64 8
  %.val35 = load ptr, ptr %14, align 8
  %15 = ptrtoint ptr %.val35 to i64
  %16 = and i64 %15, 1
  %.not = icmp eq i64 %16, 0
  br i1 %.not, label %24, label %17

17:                                               ; preds = %11
  %18 = and i64 %15, -2
  %19 = inttoptr i64 %18 to ptr
  %20 = getelementptr inbounds nuw i8, ptr %19, i64 24
  %21 = load i64, ptr %20, align 8
  %22 = and i64 %21, 16
  %.not24 = icmp eq i64 %22, 0
  br i1 %.not24, label %23, label %24

23:                                               ; preds = %17
  %puts = tail call i32 @puts(ptr nonnull dereferenceable(1) @str.1)
  br label %24

24:                                               ; preds = %23, %17, %11
  %25 = getelementptr i8, ptr %13, i64 16
  %.val36 = load ptr, ptr %25, align 8
  %26 = ptrtoint ptr %.val36 to i64
  %27 = and i64 %26, 1
  %.not25 = icmp eq i64 %27, 0
  br i1 %.not25, label %35, label %28

28:                                               ; preds = %24
  %29 = and i64 %26, -2
  %30 = inttoptr i64 %29 to ptr
  %31 = getelementptr inbounds nuw i8, ptr %30, i64 24
  %32 = load i64, ptr %31, align 8
  %33 = and i64 %32, 16
  %.not26 = icmp eq i64 %33, 0
  br i1 %.not26, label %34, label %35

34:                                               ; preds = %28
  %puts27 = tail call i32 @puts(ptr nonnull dereferenceable(1) @str.2)
  br label %35

35:                                               ; preds = %24, %28, %34
  %indvars.iv.next = add nuw nsw i64 %indvars.iv, 1
  %.val32 = load i32, ptr %8, align 4
  %36 = sext i32 %.val32 to i64
  %37 = icmp slt i64 %indvars.iv.next, %36
  br i1 %37, label %11, label %.critedge.loopexit, !llvm.loop !25

.critedge.loopexit:                               ; preds = %35
  %.val31.pre = load i32, ptr %6, align 4
  br label %.critedge

.critedge:                                        ; preds = %.critedge.loopexit, %.preheader
  %.val31 = phi i32 [ %.val31.pre, %.critedge.loopexit ], [ %.val33, %.preheader ]
  %38 = add nsw i32 %.val31, 1
  br label %98

39:                                               ; preds = %4
  %40 = icmp sgt i32 %.val33, 0
  br i1 %40, label %.lr.ph.i, label %.critedge.preheader.i

.lr.ph.i:                                         ; preds = %39
  %41 = getelementptr i8, ptr %1, i64 8
  br label %45

.critedge.preheader.i:                            ; preds = %45, %39
  %.val3045 = phi i32 [ %.val33, %39 ], [ %.val29.i, %45 ]
  %.024.lcssa.i = phi ptr [ null, %39 ], [ %47, %45 ]
  %42 = getelementptr i8, ptr %2, i64 4
  %.val2836.i = load i32, ptr %42, align 4
  %43 = icmp sgt i32 %.val2836.i, 0
  br i1 %43, label %.lr.ph38.i, label %.critedge.preheader..critedge2_crit_edge.i

.critedge.preheader..critedge2_crit_edge.i:       ; preds = %.critedge.preheader.i
  %.phi.trans.insert.i = getelementptr inbounds nuw i8, ptr %.024.lcssa.i, i64 40
  %.pre.i = load i32, ptr %.phi.trans.insert.i, align 8
  %.phi.trans.insert45.i = sext i32 %.pre.i to i64
  %.phi.trans.insert46.i = getelementptr inbounds [256 x i64], ptr @Cnf_CutDeriveTruth.S, i64 0, i64 %.phi.trans.insert45.i
  %.pre47.i = load i64, ptr %.phi.trans.insert46.i, align 8
  br label %Cnf_CutDeriveTruth.exit

.lr.ph38.i:                                       ; preds = %.critedge.preheader.i
  %44 = getelementptr i8, ptr %2, i64 8
  br label %.critedge.i

45:                                               ; preds = %45, %.lr.ph.i
  %indvars.iv.i = phi i64 [ 0, %.lr.ph.i ], [ %indvars.iv.next.i, %45 ]
  %.val31.i = load ptr, ptr %41, align 8
  %46 = getelementptr inbounds nuw ptr, ptr %.val31.i, i64 %indvars.iv.i
  %47 = load ptr, ptr %46, align 8
  %48 = getelementptr inbounds nuw i8, ptr %47, i64 40
  %49 = trunc nuw nsw i64 %indvars.iv.i to i32
  store i32 %49, ptr %48, align 8
  %50 = getelementptr inbounds nuw [6 x i64], ptr @Cnf_CutDeriveTruth.Truth6, i64 0, i64 %indvars.iv.i
  %51 = load i64, ptr %50, align 8
  %52 = getelementptr inbounds nuw [256 x i64], ptr @Cnf_CutDeriveTruth.S, i64 0, i64 %indvars.iv.i
  store i64 %51, ptr %52, align 8
  %indvars.iv.next.i = add nuw nsw i64 %indvars.iv.i, 1
  %.val29.i = load i32, ptr %6, align 4
  %53 = sext i32 %.val29.i to i64
  %54 = icmp slt i64 %indvars.iv.next.i, %53
  br i1 %54, label %45, label %.critedge.preheader.i, !llvm.loop !7

.critedge.i:                                      ; preds = %.critedge.i, %.lr.ph38.i
  %indvars.iv42.i = phi i64 [ 0, %.lr.ph38.i ], [ %indvars.iv.next43.i, %.critedge.i ]
  %.val30.i = load ptr, ptr %44, align 8
  %55 = getelementptr inbounds nuw ptr, ptr %.val30.i, i64 %indvars.iv42.i
  %56 = load ptr, ptr %55, align 8
  %.val27.i = load i32, ptr %6, align 4
  %57 = trunc nuw nsw i64 %indvars.iv42.i to i32
  %58 = add nsw i32 %.val27.i, %57
  %59 = getelementptr inbounds nuw i8, ptr %56, i64 40
  store i32 %58, ptr %59, align 8
  %60 = getelementptr i8, ptr %56, i64 8
  %.val.i = load ptr, ptr %60, align 8
  %61 = ptrtoint ptr %.val.i to i64
  %62 = and i64 %61, -2
  %63 = inttoptr i64 %62 to ptr
  %64 = getelementptr inbounds nuw i8, ptr %63, i64 40
  %65 = load i32, ptr %64, align 8
  %66 = sext i32 %65 to i64
  %67 = getelementptr inbounds [256 x i64], ptr @Cnf_CutDeriveTruth.S, i64 0, i64 %66
  %68 = load i64, ptr %67, align 8
  %69 = and i64 %61, 1
  %70 = getelementptr inbounds nuw [2 x i64], ptr @Cnf_CutDeriveTruth.C, i64 0, i64 %69
  %71 = load i64, ptr %70, align 8
  %72 = xor i64 %71, %68
  %73 = getelementptr i8, ptr %56, i64 16
  %.val26.i = load ptr, ptr %73, align 8
  %74 = ptrtoint ptr %.val26.i to i64
  %75 = and i64 %74, -2
  %76 = inttoptr i64 %75 to ptr
  %77 = getelementptr inbounds nuw i8, ptr %76, i64 40
  %78 = load i32, ptr %77, align 8
  %79 = sext i32 %78 to i64
  %80 = getelementptr inbounds [256 x i64], ptr @Cnf_CutDeriveTruth.S, i64 0, i64 %79
  %81 = load i64, ptr %80, align 8
  %82 = and i64 %74, 1
  %83 = getelementptr inbounds nuw [2 x i64], ptr @Cnf_CutDeriveTruth.C, i64 0, i64 %82
  %84 = load i64, ptr %83, align 8
  %85 = xor i64 %84, %81
  %86 = and i64 %85, %72
  %87 = sext i32 %58 to i64
  %88 = getelementptr inbounds [256 x i64], ptr @Cnf_CutDeriveTruth.S, i64 0, i64 %87
  store i64 %86, ptr %88, align 8
  %indvars.iv.next43.i = add nuw nsw i64 %indvars.iv42.i, 1
  %.val28.i = load i32, ptr %42, align 4
  %89 = sext i32 %.val28.i to i64
  %90 = icmp slt i64 %indvars.iv.next43.i, %89
  br i1 %90, label %.critedge.i, label %Cnf_CutDeriveTruth.exit.loopexit, !llvm.loop !8

Cnf_CutDeriveTruth.exit.loopexit:                 ; preds = %.critedge.i
  %.val30.pre = load i32, ptr %6, align 4
  br label %Cnf_CutDeriveTruth.exit

Cnf_CutDeriveTruth.exit:                          ; preds = %Cnf_CutDeriveTruth.exit.loopexit, %.critedge.preheader..critedge2_crit_edge.i
  %.val30 = phi i32 [ %.val3045, %.critedge.preheader..critedge2_crit_edge.i ], [ %.val30.pre, %Cnf_CutDeriveTruth.exit.loopexit ]
  %91 = phi i64 [ %.pre47.i, %.critedge.preheader..critedge2_crit_edge.i ], [ %86, %Cnf_CutDeriveTruth.exit.loopexit ]
  store i64 %91, ptr %5, align 8
  %92 = call i32 @Kit_TruthIsop(ptr noundef nonnull %5, i32 noundef %.val30, ptr noundef %3, i32 noundef 0) #14
  %93 = getelementptr i8, ptr %3, i64 4
  %.val38 = load i32, ptr %93, align 4
  %94 = load i64, ptr %5, align 8
  %95 = xor i64 %94, -1
  store i64 %95, ptr %5, align 8
  %.val29 = load i32, ptr %6, align 4
  %96 = call i32 @Kit_TruthIsop(ptr noundef nonnull %5, i32 noundef %.val29, ptr noundef %3, i32 noundef 0) #14
  %.val37 = load i32, ptr %93, align 4
  %97 = add nsw i32 %.val37, %.val38
  br label %98

98:                                               ; preds = %Cnf_CutDeriveTruth.exit, %.critedge
  %.0 = phi i32 [ %38, %.critedge ], [ %97, %Cnf_CutDeriveTruth.exit ]
  ret i32 %.0
}